target datalayout = "e-m:e-p270:32:32-p271:32:32-p272:64:64-i64:64-i128:128-f80:128-n8:16:32:64-S128"
target triple = "x86_64-pc-linux-gnu"

%struct.read_file_data = type { i32, i64, ptr, i32, i8, i32, %union.anon }
%union.anon = type { [1 x i32] }
%struct.archive_string = type { ptr, i64, i64 }

@.str.1 = private unnamed_addr constant [10 x i8] c"No memory\00", align 1
@.str.2 = private unnamed_addr constant [22 x i8] c"Can't allocate memory\00", align 1
@.str.3 = private unnamed_addr constant [69 x i8] c"Failed to convert a wide-character filename to a multi-byte filename\00", align 1

; Function Attrs: nounwind uwtable
define dso_local i32 @archive_read_open_filename_w(ptr noundef %0, ptr noundef %1, i64 noundef %2) #0 {
  %4 = alloca i32, align 4
  %5 = alloca ptr, align 8
  %6 = alloca ptr, align 8
  %7 = alloca i64, align 8
  %8 = alloca ptr, align 8
  %9 = alloca %struct.archive_string, align 8
  store ptr %0, ptr %5, align 8
  store ptr %1, ptr %6, align 8
  store i64 %2, ptr %7, align 8
  %10 = load ptr, ptr %6, align 8
  %11 = call i64 @wcslen(ptr noundef %10) #7
  %12 = mul i64 %11, 4
  %13 = add i64 40, %12
  %14 = call noalias ptr @calloc(i64 noundef 1, i64 noundef %13) #8
  store ptr %14, ptr %8, align 8
  %15 = load ptr, ptr %8, align 8
  %16 = icmp ne ptr %15, null
  br i1 %16, label %19, label %17

17:                                               ; preds = %3
  %18 = load ptr, ptr %5, align 8
  call void (ptr, i32, ptr, ...) @archive_set_error(ptr noundef %18, i32 noundef 12, ptr noundef @.str.1)
  store i32 -30, ptr %4, align 4
  br label %88

19:                                               ; preds = %3
  %20 = load ptr, ptr %8, align 8
  %21 = getelementptr inbounds %struct.read_file_data, ptr %20, i32 0, i32 0
  store i32 -1, ptr %21, align 8
  %22 = load i64, ptr %7, align 8
  %23 = load ptr, ptr %8, align 8
  %24 = getelementptr inbounds %struct.read_file_data, ptr %23, i32 0, i32 1
  store i64 %22, ptr %24, align 8
  %25 = load ptr, ptr %6, align 8
  %26 = icmp eq ptr %25, null
  br i1 %26, label %32, label %27

27:                                               ; preds = %19
  %28 = load ptr, ptr %6, align 8
  %29 = getelementptr inbounds i32, ptr %28, i64 0
  %30 = load i32, ptr %29, align 4
  %31 = icmp eq i32 %30, 0
  br i1 %31, label %32, label %35

32:                                               ; preds = %27, %19
  %33 = load ptr, ptr %8, align 8
  %34 = getelementptr inbounds %struct.read_file_data, ptr %33, i32 0, i32 5
  store i32 0, ptr %34, align 8
  br label %67

35:                                               ; preds = %27
  br label %36

36:                                               ; preds = %35
  %37 = getelementptr inbounds %struct.archive_string, ptr %9, i32 0, i32 0
  store ptr null, ptr %37, align 8
  %38 = getelementptr inbounds %struct.archive_string, ptr %9, i32 0, i32 1
  store i64 0, ptr %38, align 8
  %39 = getelementptr inbounds %struct.archive_string, ptr %9, i32 0, i32 2
  store i64 0, ptr %39, align 8
  br label %40

40:                                               ; preds = %36
  %41 = load ptr, ptr %6, align 8
  %42 = load ptr, ptr %6, align 8
  %43 = call i64 @wcslen(ptr noundef %42) #7
  %44 = call i32 @archive_string_append_from_wcs(ptr noundef %9, ptr noundef %41, i64 noundef %43)
  %45 = icmp ne i32 %44, 0
  br i1 %45, label %46, label %58

46:                                               ; preds = %40
  %47 = call ptr @__errno_location() #10
  %48 = load i32, ptr %47, align 4
  %49 = icmp eq i32 %48, 12
  br i1 %49, label %50, label %54

50:                                               ; preds = %46
  %51 = load ptr, ptr %5, align 8
  %52 = call ptr @__errno_location() #10
  %53 = load i32, ptr %52, align 4
  call void (ptr, i32, ptr, ...) @archive_set_error(ptr noundef %51, i32 noundef %53, ptr noundef @.str.2)
  br label %56

54:                                               ; preds = %46
  %55 = load ptr, ptr %5, align 8
  call void (ptr, i32, ptr, ...) @archive_set_error(ptr noundef %55, i32 noundef 22, ptr noundef @.str.3)
  br label %56

56:                                               ; preds = %54, %50
  call void @archive_string_free(ptr noundef %9)
  %57 = load ptr, ptr %8, align 8
  call void @free(ptr noundef %57) #9
  store i32 -30, ptr %4, align 4
  br label %88

58:                                               ; preds = %40
  %59 = load ptr, ptr %8, align 8
  %60 = getelementptr inbounds %struct.read_file_data, ptr %59, i32 0, i32 5
  store i32 1, ptr %60, align 8
  %61 = load ptr, ptr %8, align 8
  %62 = getelementptr inbounds %struct.read_file_data, ptr %61, i32 0, i32 6
  %63 = getelementptr inbounds [1 x i8], ptr %62, i64 0, i64 0
  %64 = getelementptr inbounds %struct.archive_string, ptr %9, i32 0, i32 0
  %65 = load ptr, ptr %64, align 8
  %66 = call ptr @strcpy(ptr noundef %63, ptr noundef %65) #9
  call void @archive_string_free(ptr noundef %9)
  br label %67

67:                                               ; preds = %58, %32
  %68 = load ptr, ptr %5, align 8
  %69 = load ptr, ptr %8, align 8
  %70 = call i32 @archive_read_append_callback_data(ptr noundef %68, ptr noundef %69)
  %71 = icmp ne i32 %70, 0
  br i1 %71, label %72, label %73

72:                                               ; preds = %67
  store i32 -30, ptr %4, align 4
  br label %88

73:                                               ; preds = %67
  %74 = load ptr, ptr %5, align 8
  %75 = call i32 @archive_read_set_open_callback(ptr noundef %74, ptr noundef @file_open)
  %76 = load ptr, ptr %5, align 8
  %77 = call i32 @archive_read_set_read_callback(ptr noundef %76, ptr noundef @file_read)
  %78 = load ptr, ptr %5, align 8
  %79 = call i32 @archive_read_set_skip_callback(ptr noundef %78, ptr noundef @file_skip)
  %80 = load ptr, ptr %5, align 8
  %81 = call i32 @archive_read_set_close_callback(ptr noundef %80, ptr noundef @file_close)
  %82 = load ptr, ptr %5, align 8
  %83 = call i32 @archive_read_set_switch_callback(ptr noundef %82, ptr noundef @file_switch)
  %84 = load ptr, ptr %5, align 8
  %85 = call i32 @archive_read_set_seek_callback(ptr noundef %84, ptr noundef @file_seek)
  %86 = load ptr, ptr %5, align 8
  %87 = call i32 @archive_read_open1(ptr noundef %86)
  store i32 %87, ptr %4, align 4
  br label %88

88:                                               ; preds = %73, %72, %56, %17
  %89 = load i32, ptr %4, align 4
  ret i32 %89
}