; Function Attrs: nounwind uwtable
define dso_local i32 @archive_read_open_filename_w(ptr noundef %0, ptr noundef %1, i64 noundef %2) local_unnamed_addr #0 {
  %4 = alloca %struct.archive_string, align 8
  %5 = tail call i64 @wcslen(ptr noundef %1) #15
  %6 = shl i64 %5, 2
  %7 = add i64 %6, 40
  %8 = tail call noalias ptr @calloc(i64 noundef 1, i64 noundef %7) #16
  %.not = icmp eq ptr %8, null
  br i1 %.not, label %9, label %10

9:                                                ; preds = %3
  tail call void (ptr, i32, ptr, ...) @archive_set_error(ptr noundef %0, i32 noundef 12, ptr noundef nonnull @.str.1) #14
  br label %40

10:                                               ; preds = %3
  store i32 -1, ptr %8, align 8
  %11 = getelementptr inbounds nuw i8, ptr %8, i64 8
  store i64 %2, ptr %11, align 8
  %12 = icmp eq ptr %1, null
  br i1 %12, label %30, label %13

13:                                               ; preds = %10
  %14 = load i32, ptr %1, align 4
  %15 = icmp eq i32 %14, 0
  br i1 %15, label %30, label %16

16:                                               ; preds = %13
  call void @llvm.memset.p0.i64(ptr noundef nonnull align 8 dereferenceable(24) %4, i8 0, i64 24, i1 false)
  %17 = call i32 @archive_string_append_from_wcs(ptr noundef nonnull %4, ptr noundef nonnull %1, i64 noundef %5) #14
  %.not28 = icmp eq i32 %17, 0
  br i1 %.not28, label %25, label %18

18:                                               ; preds = %16
  %19 = tail call ptr @__errno_location() #17
  %20 = load i32, ptr %19, align 4
  %21 = icmp eq i32 %20, 12
  br i1 %21, label %22, label %23

22:                                               ; preds = %18
  call void (ptr, i32, ptr, ...) @archive_set_error(ptr noundef %0, i32 noundef 12, ptr noundef nonnull @.str.2) #14
  br label %24

23:                                               ; preds = %18
  call void (ptr, i32, ptr, ...) @archive_set_error(ptr noundef %0, i32 noundef 22, ptr noundef nonnull @.str.3) #14
  br label %24

24:                                               ; preds = %23, %22
  call void @archive_string_free(ptr noundef nonnull %4) #14
  call void @free(ptr noundef nonnull %8) #14
  br label %40

25:                                               ; preds = %16
  %26 = getelementptr inbounds nuw i8, ptr %8, i64 32
  store i32 1, ptr %26, align 8
  %27 = getelementptr inbounds nuw i8, ptr %8, i64 36
  %28 = load ptr, ptr %4, align 8
  %29 = call ptr @strcpy(ptr noundef nonnull dereferenceable(1) %27, ptr noundef nonnull dereferenceable(1) %28) #14
  call void @archive_string_free(ptr noundef nonnull %4) #14
  br label %30

30:                                               ; preds = %10, %13, %25
  %31 = call i32 @archive_read_append_callback_data(ptr noundef %0, ptr noundef nonnull %8) #14
  %.not29 = icmp eq i32 %31, 0
  br i1 %.not29, label %32, label %40

32:                                               ; preds = %30
  %33 = call i32 @archive_read_set_open_callback(ptr noundef %0, ptr noundef nonnull @file_open) #14
  %34 = call i32 @archive_read_set_read_callback(ptr noundef %0, ptr noundef nonnull @file_read) #14
  %35 = call i32 @archive_read_set_skip_callback(ptr noundef %0, ptr noundef nonnull @file_skip) #14
  %36 = call i32 @archive_read_set_close_callback(ptr noundef %0, ptr noundef nonnull @file_close) #14
  %37 = call i32 @archive_read_set_switch_callback(ptr noundef %0, ptr noundef nonnull @file_switch) #14
  %38 = call i32 @archive_read_set_seek_callback(ptr noundef %0, ptr noundef nonnull @file_seek) #14
  %39 = call i32 @archive_read_open1(ptr noundef %0) #14
  br label %40

40:                                               ; preds = %30, %32, %24, %9
  %.0 = phi i32 [ %39, %32 ], [ -30, %24 ], [ -30, %9 ], [ -30, %30 ]
  ret i32 %.0
}